target datalayout = "e-m:e-p270:32:32-p271:32:32-p272:64:64-i64:64-i128:128-f80:128-n8:16:32:64-S128"
target triple = "x86_64-pc-linux-gnu"

%struct._cmsDICarray = type { %struct._cmsDICelem, %struct._cmsDICelem, %struct._cmsDICelem, %struct._cmsDICelem }
%struct._cmsDICelem = type { ptr, ptr, ptr }

; Function Attrs: nounwind uwtable
define internal i32 @WriteOneElem(ptr noundef %0, ptr noundef %1, i32 noundef %2) #0 {
  %4 = alloca i32, align 4
  %5 = alloca ptr, align 8
  %6 = alloca ptr, align 8
  %7 = alloca i32, align 4
  store ptr %0, ptr %5, align 8
  store ptr %1, ptr %6, align 8
  store i32 %2, ptr %7, align 4
  %8 = load ptr, ptr %5, align 8
  %9 = load ptr, ptr %6, align 8
  %10 = getelementptr inbounds %struct._cmsDICelem, ptr %9, i32 0, i32 1
  %11 = load ptr, ptr %10, align 8
  %12 = load i32, ptr %7, align 4
  %13 = zext i32 %12 to i64
  %14 = getelementptr inbounds i32, ptr %11, i64 %13
  %15 = load i32, ptr %14, align 4
  %16 = call i32 @_cmsWriteUInt32Number(ptr noundef %8, i32 noundef %15)
  %17 = icmp ne i32 %16, 0
  br i1 %17, label %19, label %18

18:                                               ; preds = %3
  store i32 0, ptr %4, align 4
  br label %32

19:                                               ; preds = %3
  %20 = load ptr, ptr %5, align 8
  %21 = load ptr, ptr %6, align 8
  %22 = getelementptr inbounds %struct._cmsDICelem, ptr %21, i32 0, i32 2
  %23 = load ptr, ptr %22, align 8
  %24 = load i32, ptr %7, align 4
  %25 = zext i32 %24 to i64
  %26 = getelementptr inbounds i32, ptr %23, i64 %25
  %27 = load i32, ptr %26, align 4
  %28 = call i32 @_cmsWriteUInt32Number(ptr noundef %20, i32 noundef %27)
  %29 = icmp ne i32 %28, 0
  br i1 %29, label %31, label %30

30:                                               ; preds = %19
  store i32 0, ptr %4, align 4
  br label %32

31:                                               ; preds = %19
  store i32 1, ptr %4, align 4
  br label %32

32:                                               ; preds = %31, %30, %18
  %33 = load i32, ptr %4, align 4
  ret i32 %33
}

; Function Attrs: nounwind uwtable
define internal i32 @WriteOffsetArray(ptr noundef %0, ptr noundef %1, i32 noundef %2, i32 noundef %3) #0 {
  %5 = alloca i32, align 4
  %6 = alloca ptr, align 8
  %7 = alloca ptr, align 8
  %8 = alloca i32, align 4
  %9 = alloca i32, align 4
  %10 = alloca i32, align 4
  store ptr %0, ptr %6, align 8
  store ptr %1, ptr %7, align 8
  store i32 %2, ptr %8, align 4
  store i32 %3, ptr %9, align 4
  store i32 0, ptr %10, align 4
  br label %11

11:                                               ; preds = %56, %4
  %12 = load i32, ptr %10, align 4
  %13 = load i32, ptr %8, align 4
  %14 = icmp ult i32 %12, %13
  br i1 %14, label %15, label %59

15:                                               ; preds = %11
  %16 = load ptr, ptr %6, align 8
  %17 = load ptr, ptr %7, align 8
  %18 = getelementptr inbounds %struct._cmsDICarray, ptr %17, i32 0, i32 0
  %19 = load i32, ptr %10, align 4
  %20 = call i32 @WriteOneElem(ptr noundef %16, ptr noundef %18, i32 noundef %19)
  %21 = icmp ne i32 %20, 0
  br i1 %21, label %23, label %22

22:                                               ; preds = %15
  store i32 0, ptr %5, align 4
  br label %60

23:                                               ; preds = %15
  %24 = load ptr, ptr %6, align 8
  %25 = load ptr, ptr %7, align 8
  %26 = getelementptr inbounds %struct._cmsDICarray, ptr %25, i32 0, i32 1
  %27 = load i32, ptr %10, align 4
  %28 = call i32 @WriteOneElem(ptr noundef %24, ptr noundef %26, i32 noundef %27)
  %29 = icmp ne i32 %28, 0
  br i1 %29, label %31, label %30

30:                                               ; preds = %23
  store i32 0, ptr %5, align 4
  br label %60

31:                                               ; preds = %23
  %32 = load i32, ptr %9, align 4
  %33 = icmp ugt i32 %32, 16
  br i1 %33, label %34, label %43

34:                                               ; preds = %31
  %35 = load ptr, ptr %6, align 8
  %36 = load ptr, ptr %7, align 8
  %37 = getelementptr inbounds %struct._cmsDICarray, ptr %36, i32 0, i32 2
  %38 = load i32, ptr %10, align 4
  %39 = call i32 @WriteOneElem(ptr noundef %35, ptr noundef %37, i32 noundef %38)
  %40 = icmp ne i32 %39, 0
  br i1 %40, label %42, label %41

41:                                               ; preds = %34
  store i32 0, ptr %5, align 4
  br label %60

42:                                               ; preds = %34
  br label %43

43:                                               ; preds = %42, %31
  %44 = load i32, ptr %9, align 4
  %45 = icmp ugt i32 %44, 24
  br i1 %45, label %46, label %55

46:                                               ; preds = %43
  %47 = load ptr, ptr %6, align 8
  %48 = load ptr, ptr %7, align 8
  %49 = getelementptr inbounds %struct._cmsDICarray, ptr %48, i32 0, i32 3
  %50 = load i32, ptr %10, align 4
  %51 = call i32 @WriteOneElem(ptr noundef %47, ptr noundef %49, i32 noundef %50)
  %52 = icmp ne i32 %51, 0
  br i1 %52, label %54, label %53

53:                                               ; preds = %46
  store i32 0, ptr %5, align 4
  br label %60

54:                                               ; preds = %46
  br label %55

55:                                               ; preds = %54, %43
  br label %56

56:                                               ; preds = %55
  %57 = load i32, ptr %10, align 4
  %58 = add i32 %57, 1
  store i32 %58, ptr %10, align 4
  br label %11, !llvm.loop !107

59:                                               ; preds = %11
  store i32 1, ptr %5, align 4
  br label %60

60:                                               ; preds = %59, %53, %41, %30, %22
  %61 = load i32, ptr %5, align 4
  ret i32 %61
}