; Function Attrs: nounwind uwtable
define internal fastcc range(i32 0, 2) i32 @WriteOffsetArray(ptr noundef %0, ptr nocapture noundef readonly %1, i32 noundef %2, i32 noundef %3) unnamed_addr #0 {
  %5 = getelementptr inbounds i8, ptr %1, i64 8
  %6 = getelementptr inbounds i8, ptr %1, i64 16
  %7 = getelementptr inbounds i8, ptr %1, i64 32
  %8 = getelementptr inbounds i8, ptr %1, i64 40
  %9 = getelementptr inbounds i8, ptr %1, i64 56
  %10 = getelementptr inbounds i8, ptr %1, i64 64
  %11 = getelementptr inbounds i8, ptr %1, i64 80
  %12 = getelementptr inbounds i8, ptr %1, i64 88
  %.not = icmp eq i32 %2, 0
  br i1 %.not, label %WriteOneElem.exit.thread, label %.lr.ph

.lr.ph:                                           ; preds = %4
  %13 = icmp ugt i32 %3, 16
  br i1 %13, label %.lr.ph.split.us, label %.lr.ph.split.preheader

.lr.ph.split.preheader:                           ; preds = %.lr.ph
  %wide.trip.count = zext i32 %2 to i64
  br label %.lr.ph.split

.lr.ph.split.us:                                  ; preds = %.lr.ph
  %14 = icmp ugt i32 %3, 24
  %wide.trip.count87 = zext i32 %2 to i64
  br i1 %14, label %.lr.ph.split.us.split.us, label %.lr.ph.split.us.split

.lr.ph.split.us.split.us:                         ; preds = %.lr.ph.split.us, %.thread.us.us
  %indvars.iv84 = phi i64 [ %indvars.iv.next85, %.thread.us.us ], [ 0, %.lr.ph.split.us ]
  %15 = load ptr, ptr %5, align 8
  %16 = getelementptr inbounds i32, ptr %15, i64 %indvars.iv84
  %17 = load i32, ptr %16, align 4
  %18 = tail call i32 @_cmsWriteUInt32Number(ptr noundef %0, i32 noundef %17) #13
  %.not.i.us.us = icmp eq i32 %18, 0
  br i1 %.not.i.us.us, label %WriteOneElem.exit.thread, label %WriteOneElem.exit.us.us

WriteOneElem.exit.us.us:                          ; preds = %.lr.ph.split.us.split.us
  %19 = load ptr, ptr %6, align 8
  %20 = getelementptr inbounds i32, ptr %19, i64 %indvars.iv84
  %21 = load i32, ptr %20, align 4
  %22 = tail call i32 @_cmsWriteUInt32Number(ptr noundef %0, i32 noundef %21) #13
  %.not6.i.not.us.us = icmp eq i32 %22, 0
  br i1 %.not6.i.not.us.us, label %WriteOneElem.exit.thread, label %23

23:                                               ; preds = %WriteOneElem.exit.us.us
  %24 = load ptr, ptr %7, align 8
  %25 = getelementptr inbounds i32, ptr %24, i64 %indvars.iv84
  %26 = load i32, ptr %25, align 4
  %27 = tail call i32 @_cmsWriteUInt32Number(ptr noundef %0, i32 noundef %26) #13
  %.not.i21.us.us = icmp eq i32 %27, 0
  br i1 %.not.i21.us.us, label %WriteOneElem.exit.thread, label %WriteOneElem.exit25.us.us

WriteOneElem.exit25.us.us:                        ; preds = %23
  %28 = load ptr, ptr %8, align 8
  %29 = getelementptr inbounds i32, ptr %28, i64 %indvars.iv84
  %30 = load i32, ptr %29, align 4
  %31 = tail call i32 @_cmsWriteUInt32Number(ptr noundef %0, i32 noundef %30) #13
  %.not6.i22.not.us.us = icmp eq i32 %31, 0
  br i1 %.not6.i22.not.us.us, label %WriteOneElem.exit.thread, label %32

32:                                               ; preds = %WriteOneElem.exit25.us.us
  %33 = load ptr, ptr %9, align 8
  %34 = getelementptr inbounds i32, ptr %33, i64 %indvars.iv84
  %35 = load i32, ptr %34, align 4
  %36 = tail call i32 @_cmsWriteUInt32Number(ptr noundef %0, i32 noundef %35) #13
  %.not.i26.us.us = icmp eq i32 %36, 0
  br i1 %.not.i26.us.us, label %WriteOneElem.exit.thread, label %WriteOneElem.exit30.us.us

WriteOneElem.exit30.us.us:                        ; preds = %32
  %37 = load ptr, ptr %10, align 8
  %38 = getelementptr inbounds i32, ptr %37, i64 %indvars.iv84
  %39 = load i32, ptr %38, align 4
  %40 = tail call i32 @_cmsWriteUInt32Number(ptr noundef %0, i32 noundef %39) #13
  %.not6.i27.not.us.us = icmp eq i32 %40, 0
  br i1 %.not6.i27.not.us.us, label %WriteOneElem.exit.thread, label %41

41:                                               ; preds = %WriteOneElem.exit30.us.us
  %42 = load ptr, ptr %11, align 8
  %43 = getelementptr inbounds i32, ptr %42, i64 %indvars.iv84
  %44 = load i32, ptr %43, align 4
  %45 = tail call i32 @_cmsWriteUInt32Number(ptr noundef %0, i32 noundef %44) #13
  %.not.i31.us.us = icmp eq i32 %45, 0
  br i1 %.not.i31.us.us, label %WriteOneElem.exit.thread, label %WriteOneElem.exit35.us.us

WriteOneElem.exit35.us.us:                        ; preds = %41
  %46 = load ptr, ptr %12, align 8
  %47 = getelementptr inbounds i32, ptr %46, i64 %indvars.iv84
  %48 = load i32, ptr %47, align 4
  %49 = tail call i32 @_cmsWriteUInt32Number(ptr noundef %0, i32 noundef %48) #13
  %.not6.i32.not.us.us = icmp eq i32 %49, 0
  br i1 %.not6.i32.not.us.us, label %WriteOneElem.exit.thread, label %.thread.us.us

.thread.us.us:                                    ; preds = %WriteOneElem.exit35.us.us
  %indvars.iv.next85 = add nuw nsw i64 %indvars.iv84, 1
  %exitcond88.not = icmp eq i64 %indvars.iv.next85, %wide.trip.count87
  br i1 %exitcond88.not, label %WriteOneElem.exit.thread, label %.lr.ph.split.us.split.us, !llvm.loop !109

.lr.ph.split.us.split:                            ; preds = %.lr.ph.split.us, %.thread.us
  %indvars.iv79 = phi i64 [ %indvars.iv.next80, %.thread.us ], [ 0, %.lr.ph.split.us ]
  %50 = load ptr, ptr %5, align 8
  %51 = getelementptr inbounds i32, ptr %50, i64 %indvars.iv79
  %52 = load i32, ptr %51, align 4
  %53 = tail call i32 @_cmsWriteUInt32Number(ptr noundef %0, i32 noundef %52) #13
  %.not.i.us = icmp eq i32 %53, 0
  br i1 %.not.i.us, label %WriteOneElem.exit.thread, label %WriteOneElem.exit.us

WriteOneElem.exit.us:                             ; preds = %.lr.ph.split.us.split
  %54 = load ptr, ptr %6, align 8
  %55 = getelementptr inbounds i32, ptr %54, i64 %indvars.iv79
  %56 = load i32, ptr %55, align 4
  %57 = tail call i32 @_cmsWriteUInt32Number(ptr noundef %0, i32 noundef %56) #13
  %.not6.i.not.us = icmp eq i32 %57, 0
  br i1 %.not6.i.not.us, label %WriteOneElem.exit.thread, label %58

58:                                               ; preds = %WriteOneElem.exit.us
  %59 = load ptr, ptr %7, align 8
  %60 = getelementptr inbounds i32, ptr %59, i64 %indvars.iv79
  %61 = load i32, ptr %60, align 4
  %62 = tail call i32 @_cmsWriteUInt32Number(ptr noundef %0, i32 noundef %61) #13
  %.not.i21.us = icmp eq i32 %62, 0
  br i1 %.not.i21.us, label %WriteOneElem.exit.thread, label %WriteOneElem.exit25.us

WriteOneElem.exit25.us:                           ; preds = %58
  %63 = load ptr, ptr %8, align 8
  %64 = getelementptr inbounds i32, ptr %63, i64 %indvars.iv79
  %65 = load i32, ptr %64, align 4
  %66 = tail call i32 @_cmsWriteUInt32Number(ptr noundef %0, i32 noundef %65) #13
  %.not6.i22.not.us = icmp eq i32 %66, 0
  br i1 %.not6.i22.not.us, label %WriteOneElem.exit.thread, label %67

67:                                               ; preds = %WriteOneElem.exit25.us
  %68 = load ptr, ptr %9, align 8
  %69 = getelementptr inbounds i32, ptr %68, i64 %indvars.iv79
  %70 = load i32, ptr %69, align 4
  %71 = tail call i32 @_cmsWriteUInt32Number(ptr noundef %0, i32 noundef %70) #13
  %.not.i26.us = icmp eq i32 %71, 0
  br i1 %.not.i26.us, label %WriteOneElem.exit.thread, label %WriteOneElem.exit30.us

WriteOneElem.exit30.us:                           ; preds = %67
  %72 = load ptr, ptr %10, align 8
  %73 = getelementptr inbounds i32, ptr %72, i64 %indvars.iv79
  %74 = load i32, ptr %73, align 4
  %75 = tail call i32 @_cmsWriteUInt32Number(ptr noundef %0, i32 noundef %74) #13
  %.not6.i27.not.us = icmp eq i32 %75, 0
  br i1 %.not6.i27.not.us, label %WriteOneElem.exit.thread, label %.thread.us

.thread.us:                                       ; preds = %WriteOneElem.exit30.us
  %indvars.iv.next80 = add nuw nsw i64 %indvars.iv79, 1
  %exitcond83.not = icmp eq i64 %indvars.iv.next80, %wide.trip.count87
  br i1 %exitcond83.not, label %WriteOneElem.exit.thread, label %.lr.ph.split.us.split, !llvm.loop !109

.lr.ph.split:                                     ; preds = %.lr.ph.split.preheader, %.thread
  %indvars.iv = phi i64 [ 0, %.lr.ph.split.preheader ], [ %indvars.iv.next, %.thread ]
  %76 = load ptr, ptr %5, align 8
  %77 = getelementptr inbounds i32, ptr %76, i64 %indvars.iv
  %78 = load i32, ptr %77, align 4
  %79 = tail call i32 @_cmsWriteUInt32Number(ptr noundef %0, i32 noundef %78) #13
  %.not.i = icmp eq i32 %79, 0
  br i1 %.not.i, label %WriteOneElem.exit.thread, label %WriteOneElem.exit

WriteOneElem.exit:                                ; preds = %.lr.ph.split
  %80 = load ptr, ptr %6, align 8
  %81 = getelementptr inbounds i32, ptr %80, i64 %indvars.iv
  %82 = load i32, ptr %81, align 4
  %83 = tail call i32 @_cmsWriteUInt32Number(ptr noundef %0, i32 noundef %82) #13
  %.not6.i.not = icmp eq i32 %83, 0
  br i1 %.not6.i.not, label %WriteOneElem.exit.thread, label %84

84:                                               ; preds = %WriteOneElem.exit
  %85 = load ptr, ptr %7, align 8
  %86 = getelementptr inbounds i32, ptr %85, i64 %indvars.iv
  %87 = load i32, ptr %86, align 4
  %88 = tail call i32 @_cmsWriteUInt32Number(ptr noundef %0, i32 noundef %87) #13
  %.not.i21 = icmp eq i32 %88, 0
  br i1 %.not.i21, label %WriteOneElem.exit.thread, label %WriteOneElem.exit25

WriteOneElem.exit25:                              ; preds = %84
  %89 = load ptr, ptr %8, align 8
  %90 = getelementptr inbounds i32, ptr %89, i64 %indvars.iv
  %91 = load i32, ptr %90, align 4
  %92 = tail call i32 @_cmsWriteUInt32Number(ptr noundef %0, i32 noundef %91) #13
  %.not6.i22.not = icmp eq i32 %92, 0
  br i1 %.not6.i22.not, label %WriteOneElem.exit.thread, label %.thread

.thread:                                          ; preds = %WriteOneElem.exit25
  %indvars.iv.next = add nuw nsw i64 %indvars.iv, 1
  %exitcond.not = icmp eq i64 %indvars.iv.next, %wide.trip.count
  br i1 %exitcond.not, label %WriteOneElem.exit.thread, label %.lr.ph.split, !llvm.loop !109

WriteOneElem.exit.thread:                         ; preds = %WriteOneElem.exit, %WriteOneElem.exit25, %.thread, %.lr.ph.split, %84, %WriteOneElem.exit.us, %WriteOneElem.exit25.us, %WriteOneElem.exit30.us, %.thread.us, %.lr.ph.split.us.split, %58, %67, %WriteOneElem.exit.us.us, %WriteOneElem.exit25.us.us, %WriteOneElem.exit30.us.us, %WriteOneElem.exit35.us.us, %.thread.us.us, %.lr.ph.split.us.split.us, %23, %32, %41, %4
  %.017 = phi i32 [ 1, %4 ], [ 0, %41 ], [ 0, %32 ], [ 0, %23 ], [ 0, %.lr.ph.split.us.split.us ], [ 1, %.thread.us.us ], [ 0, %WriteOneElem.exit35.us.us ], [ 0, %WriteOneElem.exit30.us.us ], [ 0, %WriteOneElem.exit25.us.us ], [ 0, %WriteOneElem.exit.us.us ], [ 0, %67 ], [ 0, %58 ], [ 0, %.lr.ph.split.us.split ], [ 1, %.thread.us ], [ 0, %WriteOneElem.exit30.us ], [ 0, %WriteOneElem.exit25.us ], [ 0, %WriteOneElem.exit.us ], [ 0, %84 ], [ 0, %.lr.ph.split ], [ 1, %.thread ], [ 0, %WriteOneElem.exit25 ], [ 0, %WriteOneElem.exit ]
  ret i32 %.017
}